target datalayout = "e-m:e-p270:32:32-p271:32:32-p272:64:64-i64:64-i128:128-f80:128-n8:16:32:64-S128"
target triple = "x86_64-pc-linux-gnu"

%struct.AVCodecDescriptor = type { i32, i32, ptr, ptr, i32, ptr, ptr }

; Function Attrs: nounwind uwtable
define internal i32 @compare_codec_desc(ptr noundef %0, ptr noundef %1) #0 {
  %3 = alloca ptr, align 8
  %4 = alloca ptr, align 8
  %5 = alloca ptr, align 8
  %6 = alloca ptr, align 8
  store ptr %0, ptr %3, align 8, !tbaa !4
  store ptr %1, ptr %4, align 8, !tbaa !4
  call void @llvm.lifetime.start.p0(i64 8, ptr %5) #11
  %7 = load ptr, ptr %3, align 8, !tbaa !4
  store ptr %7, ptr %5, align 8, !tbaa !71
  call void @llvm.lifetime.start.p0(i64 8, ptr %6) #11
  %8 = load ptr, ptr %4, align 8, !tbaa !4
  store ptr %8, ptr %6, align 8, !tbaa !71
  %9 = load ptr, ptr %5, align 8, !tbaa !71
  %10 = load ptr, ptr %9, align 8, !tbaa !24
  %11 = getelementptr inbounds nuw %struct.AVCodecDescriptor, ptr %10, i32 0, i32 1
  %12 = load i32, ptr %11, align 4, !tbaa !73
  %13 = load ptr, ptr %6, align 8, !tbaa !71
  %14 = load ptr, ptr %13, align 8, !tbaa !24
  %15 = getelementptr inbounds nuw %struct.AVCodecDescriptor, ptr %14, i32 0, i32 1
  %16 = load i32, ptr %15, align 4, !tbaa !73
  %17 = icmp ne i32 %12, %16
  br i1 %17, label %18, label %40

18:                                               ; preds = %2
  %19 = load ptr, ptr %5, align 8, !tbaa !71
  %20 = load ptr, ptr %19, align 8, !tbaa !24
  %21 = getelementptr inbounds nuw %struct.AVCodecDescriptor, ptr %20, i32 0, i32 1
  %22 = load i32, ptr %21, align 4, !tbaa !73
  %23 = load ptr, ptr %6, align 8, !tbaa !71
  %24 = load ptr, ptr %23, align 8, !tbaa !24
  %25 = getelementptr inbounds nuw %struct.AVCodecDescriptor, ptr %24, i32 0, i32 1
  %26 = load i32, ptr %25, align 4, !tbaa !73
  %27 = icmp sgt i32 %22, %26
  %28 = zext i1 %27 to i32
  %29 = load ptr, ptr %5, align 8, !tbaa !71
  %30 = load ptr, ptr %29, align 8, !tbaa !24
  %31 = getelementptr inbounds nuw %struct.AVCodecDescriptor, ptr %30, i32 0, i32 1
  %32 = load i32, ptr %31, align 4, !tbaa !73
  %33 = load ptr, ptr %6, align 8, !tbaa !71
  %34 = load ptr, ptr %33, align 8, !tbaa !24
  %35 = getelementptr inbounds nuw %struct.AVCodecDescriptor, ptr %34, i32 0, i32 1
  %36 = load i32, ptr %35, align 4, !tbaa !73
  %37 = icmp slt i32 %32, %36
  %38 = zext i1 %37 to i32
  %39 = sub nsw i32 %28, %38
  br label %50

40:                                               ; preds = %2
  %41 = load ptr, ptr %5, align 8, !tbaa !71
  %42 = load ptr, ptr %41, align 8, !tbaa !24
  %43 = getelementptr inbounds nuw %struct.AVCodecDescriptor, ptr %42, i32 0, i32 2
  %44 = load ptr, ptr %43, align 8, !tbaa !47
  %45 = load ptr, ptr %6, align 8, !tbaa !71
  %46 = load ptr, ptr %45, align 8, !tbaa !24
  %47 = getelementptr inbounds nuw %struct.AVCodecDescriptor, ptr %46, i32 0, i32 2
  %48 = load ptr, ptr %47, align 8, !tbaa !47
  %49 = call i32 @strcmp(ptr noundef %44, ptr noundef %48) #12
  br label %50

50:                                               ; preds = %40, %18
  %51 = phi i32 [ %39, %18 ], [ %49, %40 ]
  call void @llvm.lifetime.end.p0(i64 8, ptr %6) #11
  call void @llvm.lifetime.end.p0(i64 8, ptr %5) #11
  ret i32 %51
}