; Function Attrs: mustprogress nofree norecurse nounwind willreturn memory(read, inaccessiblemem: none) uwtable
define internal i32 @compare_codec_desc(ptr noundef readonly captures(none) %0, ptr noundef readonly captures(none) %1) #13 {
  %3 = load ptr, ptr %0, align 8, !tbaa !63
  %4 = getelementptr inbounds nuw i8, ptr %3, i64 4
  %5 = load i32, ptr %4, align 4, !tbaa !65
  %6 = load ptr, ptr %1, align 8, !tbaa !63
  %7 = getelementptr inbounds nuw i8, ptr %6, i64 4
  %8 = load i32, ptr %7, align 4, !tbaa !65
  %.not = icmp eq i32 %5, %8
  br i1 %.not, label %11, label %9

9:                                                ; preds = %2
  %10 = tail call i32 @llvm.scmp.i32.i32(i32 %5, i32 %8)
  br label %17

11:                                               ; preds = %2
  %12 = getelementptr inbounds nuw i8, ptr %3, i64 8
  %13 = load ptr, ptr %12, align 8, !tbaa !30
  %14 = getelementptr inbounds nuw i8, ptr %6, i64 8
  %15 = load ptr, ptr %14, align 8, !tbaa !30
  %16 = tail call i32 @strcmp(ptr noundef nonnull dereferenceable(1) %13, ptr noundef nonnull dereferenceable(1) %15) #18
  br label %17

17:                                               ; preds = %11, %9
  %18 = phi i32 [ %10, %9 ], [ %16, %11 ]
  ret i32 %18
}